; ModuleID = '24/588.c'
source_filename = "24/588.c"
target datalayout = "e-m:e-p270:32:32-p271:32:32-p272:64:64-i64:64-f80:128-n8:16:32:64-S128"
target triple = "x86_64-pc-linux-gnu"

@.str = private unnamed_addr constant [3 x i8] c"%c\00", align 1
@.str.1 = private unnamed_addr constant [2 x i8] c"\0A\00", align 1

; Function Attrs: noinline nounwind uwtable
define dso_local i32 @main() #0 {
  %1 = alloca i32, align 4
  %2 = alloca i32, align 4
  %3 = alloca i32, align 4
  %4 = alloca [50 x i32], align 16
  %5 = alloca i32, align 4
  %6 = alloca i32, align 4
  %7 = alloca i32, align 4
  %8 = alloca i32, align 4
  %9 = alloca [300 x i8], align 16
  store i32 0, i32* %1, align 4
  store i32 1, i32* %5, align 4
  %10 = getelementptr inbounds [300 x i8], [300 x i8]* %9, i64 0, i64 0
  %11 = call i32 (i8*, ...) bitcast (i32 (...)* @gets to i32 (i8*, ...)*)(i8* %10)
  %12 = getelementptr inbounds [300 x i8], [300 x i8]* %9, i64 0, i64 0
  %13 = call i64 @strlen(i8* %12) #3
  %14 = trunc i64 %13 to i32
  store i32 %14, i32* %6, align 4
  store i32 0, i32* %2, align 4
  br label %15

15:                                               ; preds = %35, %0
  %16 = load i32, i32* %2, align 4
  %17 = load i32, i32* %6, align 4
  %18 = icmp slt i32 %16, %17
  br i1 %18, label %19, label %38

19:                                               ; preds = %15
  %20 = load i32, i32* %2, align 4
  %21 = sext i32 %20 to i64
  %22 = getelementptr inbounds [300 x i8], [300 x i8]* %9, i64 0, i64 %21
  %23 = load i8, i8* %22, align 1
  %24 = sext i8 %23 to i32
  %25 = icmp eq i32 %24, 32
  br i1 %25, label %26, label %34

26:                                               ; preds = %19
  %27 = load i32, i32* %2, align 4
  %28 = add nsw i32 %27, 1
  %29 = load i32, i32* %5, align 4
  %30 = sext i32 %29 to i64
  %31 = getelementptr inbounds [50 x i32], [50 x i32]* %4, i64 0, i64 %30
  store i32 %28, i32* %31, align 4
  %32 = load i32, i32* %5, align 4
  %33 = add nsw i32 %32, 1
  store i32 %33, i32* %5, align 4
  br label %34

34:                                               ; preds = %26, %19
  br label %35

35:                                               ; preds = %34
  %36 = load i32, i32* %2, align 4
  %37 = add nsw i32 %36, 1
  store i32 %37, i32* %2, align 4
  br label %15

38:                                               ; preds = %15
  %39 = getelementptr inbounds [50 x i32], [50 x i32]* %4, i64 0, i64 0
  store i32 0, i32* %39, align 16
  %40 = load i32, i32* %6, align 4
  %41 = add nsw i32 %40, 1
  %42 = load i32, i32* %5, align 4
  %43 = sext i32 %42 to i64
  %44 = getelementptr inbounds [50 x i32], [50 x i32]* %4, i64 0, i64 %43
  store i32 %41, i32* %44, align 4
  store i32 0, i32* %2, align 4
  store i32 0, i32* %3, align 4
  store i32 1, i32* %8, align 4
  br label %45

45:                                               ; preds = %99, %38
  %46 = load i32, i32* %8, align 4
  %47 = load i32, i32* %5, align 4
  %48 = icmp slt i32 %46, %47
  br i1 %48, label %49, label %102

49:                                               ; preds = %45
  %50 = load i32, i32* %8, align 4
  %51 = add nsw i32 %50, 1
  %52 = sext i32 %51 to i64
  %53 = getelementptr inbounds [50 x i32], [50 x i32]* %4, i64 0, i64 %52
  %54 = load i32, i32* %53, align 4
  %55 = load i32, i32* %8, align 4
  %56 = sext i32 %55 to i64
  %57 = getelementptr inbounds [50 x i32], [50 x i32]* %4, i64 0, i64 %56
  %58 = load i32, i32* %57, align 4
  %59 = sub nsw i32 %54, %58
  %60 = load i32, i32* %2, align 4
  %61 = add nsw i32 %60, 1
  %62 = sext i32 %61 to i64
  %63 = getelementptr inbounds [50 x i32], [50 x i32]* %4, i64 0, i64 %62
  %64 = load i32, i32* %63, align 4
  %65 = load i32, i32* %2, align 4
  %66 = sext i32 %65 to i64
  %67 = getelementptr inbounds [50 x i32], [50 x i32]* %4, i64 0, i64 %66
  %68 = load i32, i32* %67, align 4
  %69 = sub nsw i32 %64, %68
  %70 = icmp sgt i32 %59, %69
  br i1 %70, label %71, label %73

71:                                               ; preds = %49
  %72 = load i32, i32* %8, align 4
  store i32 %72, i32* %2, align 4
  br label %98

73:                                               ; preds = %49
  %74 = load i32, i32* %8, align 4
  %75 = add nsw i32 %74, 1
  %76 = sext i32 %75 to i64
  %77 = getelementptr inbounds [50 x i32], [50 x i32]* %4, i64 0, i64 %76
  %78 = load i32, i32* %77, align 4
  %79 = load i32, i32* %8, align 4
  %80 = sext i32 %79 to i64
  %81 = getelementptr inbounds [50 x i32], [50 x i32]* %4, i64 0, i64 %80
  %82 = load i32, i32* %81, align 4
  %83 = sub nsw i32 %78, %82
  %84 = load i32, i32* %3, align 4
  %85 = add nsw i32 %84, 1
  %86 = sext i32 %85 to i64
  %87 = getelementptr inbounds [50 x i32], [50 x i32]* %4, i64 0, i64 %86
  %88 = load i32, i32* %87, align 4
  %89 = load i32, i32* %3, align 4
  %90 = sext i32 %89 to i64
  %91 = getelementptr inbounds [50 x i32], [50 x i32]* %4, i64 0, i64 %90
  %92 = load i32, i32* %91, align 4
  %93 = sub nsw i32 %88, %92
  %94 = icmp slt i32 %83, %93
  br i1 %94, label %95, label %97

95:                                               ; preds = %73
  %96 = load i32, i32* %8, align 4
  store i32 %96, i32* %3, align 4
  br label %97

97:                                               ; preds = %95, %73
  br label %98

98:                                               ; preds = %97, %71
  br label %99

99:                                               ; preds = %98
  %100 = load i32, i32* %8, align 4
  %101 = add nsw i32 %100, 1
  store i32 %101, i32* %8, align 4
  br label %45

102:                                              ; preds = %45
  %103 = load i32, i32* %2, align 4
  %104 = sext i32 %103 to i64
  %105 = getelementptr inbounds [50 x i32], [50 x i32]* %4, i64 0, i64 %104
  %106 = load i32, i32* %105, align 4
  store i32 %106, i32* %7, align 4
  br label %107

107:                                              ; preds = %123, %102
  %108 = load i32, i32* %7, align 4
  %109 = load i32, i32* %2, align 4
  %110 = add nsw i32 %109, 1
  %111 = sext i32 %110 to i64
  %112 = getelementptr inbounds [50 x i32], [50 x i32]* %4, i64 0, i64 %111
  %113 = load i32, i32* %112, align 4
  %114 = sub nsw i32 %113, 1
  %115 = icmp slt i32 %108, %114
  br i1 %115, label %116, label %126

116:                                              ; preds = %107
  %117 = load i32, i32* %7, align 4
  %118 = sext i32 %117 to i64
  %119 = getelementptr inbounds [300 x i8], [300 x i8]* %9, i64 0, i64 %118
  %120 = load i8, i8* %119, align 1
  %121 = sext i8 %120 to i32
  %122 = call i32 (i8*, ...) @printf(i8* getelementptr inbounds ([3 x i8], [3 x i8]* @.str, i64 0, i64 0), i32 %121)
  br label %123

123:                                              ; preds = %116
  %124 = load i32, i32* %7, align 4
  %125 = add nsw i32 %124, 1
  store i32 %125, i32* %7, align 4
  br label %107

126:                                              ; preds = %107
  %127 = call i32 (i8*, ...) @printf(i8* getelementptr inbounds ([2 x i8], [2 x i8]* @.str.1, i64 0, i64 0))
  %128 = load i32, i32* %3, align 4
  %129 = sext i32 %128 to i64
  %130 = getelementptr inbounds [50 x i32], [50 x i32]* %4, i64 0, i64 %129
  %131 = load i32, i32* %130, align 4
  store i32 %131, i32* %7, align 4
  br label %132

132:                                              ; preds = %148, %126
  %133 = load i32, i32* %7, align 4
  %134 = load i32, i32* %3, align 4
  %135 = add nsw i32 %134, 1
  %136 = sext i32 %135 to i64
  %137 = getelementptr inbounds [50 x i32], [50 x i32]* %4, i64 0, i64 %136
  %138 = load i32, i32* %137, align 4
  %139 = sub nsw i32 %138, 1
  %140 = icmp slt i32 %133, %139
  br i1 %140, label %141, label %151

141:                                              ; preds = %132
  %142 = load i32, i32* %7, align 4
  %143 = sext i32 %142 to i64
  %144 = getelementptr inbounds [300 x i8], [300 x i8]* %9, i64 0, i64 %143
  %145 = load i8, i8* %144, align 1
  %146 = sext i8 %145 to i32
  %147 = call i32 (i8*, ...) @printf(i8* getelementptr inbounds ([3 x i8], [3 x i8]* @.str, i64 0, i64 0), i32 %146)
  br label %148

148:                                              ; preds = %141
  %149 = load i32, i32* %7, align 4
  %150 = add nsw i32 %149, 1
  store i32 %150, i32* %7, align 4
  br label %132

151:                                              ; preds = %132
  ret i32 0
}

declare dso_local i32 @gets(...) #1

; Function Attrs: nounwind readonly
declare dso_local i64 @strlen(i8*) #2

declare dso_local i32 @printf(i8*, ...) #1


!llvm.module.flags = !{!0}
!llvm.ident = !{!1}

!0 = !{i32 1, !"wchar_size", i32 4}
!1 = !{!"clang version 10.0.0-4ubuntu1 "}
